; Function Attrs: mustprogress nounwind uwtable
define internal void @_ZN12_GLOBAL__N_114RegexDirectiveD0Ev(ptr noundef nonnull align 8 dereferenceable(80) %0) unnamed_addr #0 align 2 {
  store ptr getelementptr inbounds inrange(-16, 32) (i8, ptr @_ZTVN12_GLOBAL__N_114RegexDirectiveE, i64 16), ptr %0, align 8
  %2 = getelementptr inbounds nuw i8, ptr %0, i64 64
  tail call void @_ZN4llvm5RegexD1Ev(ptr noundef nonnull align 8 dereferenceable(12) %2) #20
  store ptr getelementptr inbounds inrange(-16, 32) (i8, ptr @_ZTVN5clang24VerifyDiagnosticConsumer9DirectiveE, i64 16), ptr %0, align 8
  %3 = getelementptr inbounds nuw i8, ptr %0, i64 16
  tail call void @_ZNSt7__cxx1112basic_stringIcSt11char_traitsIcESaIcEED1Ev(ptr noundef nonnull align 8 dereferenceable(32) %3) #20
  tail call void @_ZdlPvm(ptr noundef nonnull %0, i64 noundef 80) #21
  ret void
}